target datalayout = "e-m:e-p270:32:32-p271:32:32-p272:64:64-i64:64-i128:128-f80:128-n8:16:32:64-S128"
target triple = "x86_64-pc-linux-gnu"

%struct.tls_buffer_st = type { ptr, i64, i64, i64, i64, i32, i32 }
%struct.tls_rl_record_st = type { i32, i32, i64, i64, i64, ptr, ptr, ptr, i16, [8 x i8] }
%struct.ossl_record_layer_st = type { ptr, ptr, i32, i32, i32, i32, i32, ptr, i16, ptr, ptr, ptr, i64, i32, [33 x %struct.tls_buffer_st], i64, i64, %struct.tls_buffer_st, [32 x %struct.tls_rl_record_st], i64, i64, i64, i32, ptr, i64, [8 x i8], i32, i32, i64, i32, ptr, ptr, i64, ptr, ptr, i32, i32, i32, i64, i64, i64, [64 x i8], i32, i32, i32, ptr, ptr, i32, i32, i64, ptr, ptr, %struct.dtls_bitmap_st, %struct.dtls_bitmap_st, i32, ptr, ptr, ptr, ptr, ptr, i64, ptr }
%struct.dtls_bitmap_st = type { i64, [8 x i8] }

@.str = private unnamed_addr constant [43 x i8] c"../openssl/ssl/record/methods/tls_common.c\00", align 1
@__func__.tls_default_validate_record_header = private unnamed_addr constant [35 x i8] c"tls_default_validate_record_header\00", align 1

; Function Attrs: nounwind uwtable
define i32 @tls_default_validate_record_header(ptr noundef %0, ptr noundef %1) #0 {
  %3 = alloca i32, align 4
  %4 = alloca ptr, align 8
  %5 = alloca ptr, align 8
  %6 = alloca i64, align 8
  %7 = alloca i32, align 4
  store ptr %0, ptr %4, align 8, !tbaa !16
  store ptr %1, ptr %5, align 8, !tbaa !13
  call void @llvm.lifetime.start.p0(i64 8, ptr %6) #10
  store i64 17728, ptr %6, align 8, !tbaa !38
  %8 = load ptr, ptr %5, align 8, !tbaa !13
  %9 = getelementptr inbounds nuw %struct.tls_rl_record_st, ptr %8, i32 0, i32 0
  %10 = load i32, ptr %9, align 8, !tbaa !81
  %11 = load ptr, ptr %4, align 8, !tbaa !16
  %12 = getelementptr inbounds nuw %struct.ossl_record_layer_st, ptr %11, i32 0, i32 3
  %13 = load i32, ptr %12, align 4, !tbaa !44
  %14 = icmp ne i32 %10, %13
  br i1 %14, label %15, label %17

15:                                               ; preds = %2
  call void @ERR_new()
  call void @ERR_set_debug(ptr noundef @.str, i32 noundef 996, ptr noundef @__func__.tls_default_validate_record_header)
  %16 = load ptr, ptr %4, align 8, !tbaa !16
  call void (ptr, i32, i32, ptr, ...) @ossl_rlayer_fatal(ptr noundef %16, i32 noundef 70, i32 noundef 267, ptr noundef null)
  store i32 0, ptr %3, align 4
  store i32 1, ptr %7, align 4
  br label %34

17:                                               ; preds = %2
  %18 = load ptr, ptr %4, align 8, !tbaa !16
  %19 = getelementptr inbounds nuw %struct.ossl_record_layer_st, ptr %18, i32 0, i32 34
  %20 = load ptr, ptr %19, align 8, !tbaa !117
  %21 = icmp eq ptr %20, null
  br i1 %21, label %22, label %25

22:                                               ; preds = %17
  %23 = load i64, ptr %6, align 8, !tbaa !38
  %24 = sub i64 %23, 1024
  store i64 %24, ptr %6, align 8, !tbaa !38
  br label %25

25:                                               ; preds = %22, %17
  %26 = load ptr, ptr %5, align 8, !tbaa !13
  %27 = getelementptr inbounds nuw %struct.tls_rl_record_st, ptr %26, i32 0, i32 2
  %28 = load i64, ptr %27, align 8, !tbaa !82
  %29 = load i64, ptr %6, align 8, !tbaa !38
  %30 = icmp ugt i64 %28, %29
  br i1 %30, label %31, label %33

31:                                               ; preds = %25
  call void @ERR_new()
  call void @ERR_set_debug(ptr noundef @.str, i32 noundef 1011, ptr noundef @__func__.tls_default_validate_record_header)
  %32 = load ptr, ptr %4, align 8, !tbaa !16
  call void (ptr, i32, i32, ptr, ...) @ossl_rlayer_fatal(ptr noundef %32, i32 noundef 22, i32 noundef 150, ptr noundef null)
  store i32 0, ptr %3, align 4
  store i32 1, ptr %7, align 4
  br label %34

33:                                               ; preds = %25
  store i32 1, ptr %3, align 4
  store i32 1, ptr %7, align 4
  br label %34

34:                                               ; preds = %33, %31, %15
  call void @llvm.lifetime.end.p0(i64 8, ptr %6) #10
  %35 = load i32, ptr %3, align 4
  ret i32 %35
}