; Function Attrs: nounwind uwtable
define range(i32 0, 2) i32 @tls_default_validate_record_header(ptr noundef captures(none) %0, ptr noundef readonly captures(none) %1) local_unnamed_addr #0 {
  %3 = load i32, ptr %1, align 8, !tbaa !64
  %4 = getelementptr inbounds nuw i8, ptr %0, i64 20
  %5 = load i32, ptr %4, align 4, !tbaa !31
  %.not = icmp eq i32 %3, %5
  br i1 %.not, label %7, label %6

6:                                                ; preds = %2
  tail call void @ERR_new() #13
  tail call void @ERR_set_debug(ptr noundef nonnull @.str, i32 noundef 996, ptr noundef nonnull @__func__.tls_default_validate_record_header) #13
  tail call void (ptr, i32, i32, ptr, ...) @ossl_rlayer_fatal(ptr noundef nonnull %0, i32 noundef 70, i32 noundef 267, ptr noundef null)
  br label %15

7:                                                ; preds = %2
  %8 = getelementptr inbounds nuw i8, ptr %0, i64 4160
  %9 = load ptr, ptr %8, align 8, !tbaa !93
  %10 = icmp eq ptr %9, null
  %spec.select = select i1 %10, i64 16704, i64 17728
  %11 = getelementptr inbounds nuw i8, ptr %1, i64 8
  %12 = load i64, ptr %11, align 8, !tbaa !65
  %13 = icmp ugt i64 %12, %spec.select
  br i1 %13, label %14, label %15

14:                                               ; preds = %7
  tail call void @ERR_new() #13
  tail call void @ERR_set_debug(ptr noundef nonnull @.str, i32 noundef 1011, ptr noundef nonnull @__func__.tls_default_validate_record_header) #13
  tail call void (ptr, i32, i32, ptr, ...) @ossl_rlayer_fatal(ptr noundef nonnull %0, i32 noundef 22, i32 noundef 150, ptr noundef null)
  br label %15

15:                                               ; preds = %7, %14, %6
  %.08 = phi i32 [ 0, %6 ], [ 0, %14 ], [ 1, %7 ]
  ret i32 %.08
}